; Function Attrs: mustprogress uwtable
define hidden void @_ZN6google8protobuf2io19EpsCopyOutputStream14EnableAliasingEb(ptr noundef nonnull align 8 captures(none) dereferenceable(59) initializes((57, 58)) %0, i1 noundef zeroext %1) local_unnamed_addr #4 align 2 {
  br i1 %1, label %3, label %11

3:                                                ; preds = %2
  %4 = getelementptr inbounds nuw i8, ptr %0, i64 48
  %5 = load ptr, ptr %4, align 8, !tbaa !53
  %6 = load ptr, ptr %5, align 8, !tbaa !18
  %7 = getelementptr inbounds nuw i8, ptr %6, i64 48
  %8 = load ptr, ptr %7, align 8
  %9 = tail call noundef zeroext i1 %8(ptr noundef nonnull align 8 dereferenceable(8) %5)
  %10 = zext i1 %9 to i8
  br label %11

11:                                               ; preds = %3, %2
  %12 = phi i8 [ 0, %2 ], [ %10, %3 ]
  %13 = getelementptr inbounds nuw i8, ptr %0, i64 57
  store i8 %12, ptr %13, align 1, !tbaa !56
  ret void
}